target datalayout = "e-m:e-p270:32:32-p271:32:32-p272:64:64-i64:64-i128:128-f80:128-n8:16:32:64-S128"
target triple = "x86_64-pc-linux-gnu"

%struct.__mm_storel_epi64_struct = type { i64 }
%struct.__loadu_ps = type { <4 x float> }
%struct.__storeu_ps = type { <4 x float> }
%struct.__mm_storeh_pd_struct = type { double }

; Function Attrs: alwaysinline nounwind uwtable
define internal void @_mm_storeh_pd(ptr noundef %0, <2 x double> noundef %1) #13 {
  %3 = alloca ptr, align 8
  %4 = alloca <2 x double>, align 16
  store ptr %0, ptr %3, align 8
  store <2 x double> %1, ptr %4, align 16
  %5 = load <2 x double>, ptr %4, align 16
  %6 = extractelement <2 x double> %5, i32 1
  %7 = load ptr, ptr %3, align 8
  %8 = getelementptr inbounds nuw %struct.__mm_storeh_pd_struct, ptr %7, i32 0, i32 0
  store double %6, ptr %8, align 1
  ret void
}

; Function Attrs: alwaysinline nounwind uwtable
define internal <2 x double> @_mm_castps_pd(<4 x float> noundef %0) #13 {
  %2 = alloca <4 x float>, align 16
  store <4 x float> %0, ptr %2, align 16
  %3 = load <4 x float>, ptr %2, align 16
  %4 = bitcast <4 x float> %3 to <2 x double>
  ret <2 x double> %4
}

; Function Attrs: alwaysinline nounwind uwtable
define internal void @_mm_storeu_ps(ptr noundef %0, <4 x float> noundef %1) #13 {
  %3 = alloca ptr, align 8
  %4 = alloca <4 x float>, align 16
  store ptr %0, ptr %3, align 8
  store <4 x float> %1, ptr %4, align 16
  %5 = load <4 x float>, ptr %4, align 16
  %6 = load ptr, ptr %3, align 8
  %7 = getelementptr inbounds nuw %struct.__storeu_ps, ptr %6, i32 0, i32 0
  store <4 x float> %5, ptr %7, align 1
  ret void
}

; Function Attrs: alwaysinline nounwind uwtable
define internal void @_mm_storel_epi64(ptr noundef %0, <2 x i64> noundef %1) #13 {
  %3 = alloca ptr, align 8
  %4 = alloca <2 x i64>, align 16
  store ptr %0, ptr %3, align 8
  store <2 x i64> %1, ptr %4, align 16
  %5 = load <2 x i64>, ptr %4, align 16
  %6 = extractelement <2 x i64> %5, i32 0
  %7 = load ptr, ptr %3, align 8
  %8 = getelementptr inbounds nuw %struct.__mm_storel_epi64_struct, ptr %7, i32 0, i32 0
  store i64 %6, ptr %8, align 1
  ret void
}

; Function Attrs: alwaysinline nounwind uwtable
define internal <4 x float> @_mm_mul_ps(<4 x float> noundef %0, <4 x float> noundef %1) #13 {
  %3 = alloca <4 x float>, align 16
  %4 = alloca <4 x float>, align 16
  store <4 x float> %0, ptr %3, align 16
  store <4 x float> %1, ptr %4, align 16
  %5 = load <4 x float>, ptr %3, align 16
  %6 = load <4 x float>, ptr %4, align 16
  %7 = fmul <4 x float> %5, %6
  ret <4 x float> %7
}

; Function Attrs: alwaysinline nounwind uwtable
define internal <4 x float> @_mm_castsi128_ps(<2 x i64> noundef %0) #13 {
  %2 = alloca <2 x i64>, align 16
  store <2 x i64> %0, ptr %2, align 16
  %3 = load <2 x i64>, ptr %2, align 16
  %4 = bitcast <2 x i64> %3 to <4 x float>
  ret <4 x float> %4
}

; Function Attrs: alwaysinline nounwind uwtable
define internal <2 x i64> @_mm_castps_si128(<4 x float> noundef %0) #13 {
  %2 = alloca <4 x float>, align 16
  store <4 x float> %0, ptr %2, align 16
  %3 = load <4 x float>, ptr %2, align 16
  %4 = bitcast <4 x float> %3 to <2 x i64>
  ret <2 x i64> %4
}

; Function Attrs: alwaysinline nounwind uwtable
define internal <4 x float> @_mm_loadu_ps(ptr noundef %0) #13 {
  %2 = alloca ptr, align 8
  store ptr %0, ptr %2, align 8
  %3 = load ptr, ptr %2, align 8
  %4 = getelementptr inbounds nuw %struct.__loadu_ps, ptr %3, i32 0, i32 0
  %5 = load <4 x float>, ptr %4, align 1
  ret <4 x float> %5
}

; Function Attrs: nounwind uwtable
define internal void @stbir__fancy_alpha_weight_2ch(ptr noundef %0, i32 noundef %1) #12 {
  %3 = alloca ptr, align 8
  %4 = alloca i32, align 4
  %5 = alloca ptr, align 8
  %6 = alloca ptr, align 8
  %7 = alloca ptr, align 8
  %8 = alloca <4 x float>, align 16
  %9 = alloca <4 x float>, align 16
  %10 = alloca <4 x float>, align 16
  %11 = alloca <4 x float>, align 16
  %12 = alloca <4 x float>, align 16
  %13 = alloca <4 x float>, align 16
  %14 = alloca float, align 4
  %15 = alloca float, align 4
  store ptr %0, ptr %3, align 8
  store i32 %1, ptr %4, align 4
  call void @llvm.lifetime.start.p0(i64 8, ptr %5) #19
  %16 = load ptr, ptr %3, align 8
  store ptr %16, ptr %5, align 8
  call void @llvm.lifetime.start.p0(i64 8, ptr %6) #19
  %17 = load ptr, ptr %3, align 8
  %18 = load i32, ptr %4, align 4
  %19 = sdiv i32 %18, 2
  %20 = mul nsw i32 %19, 3
  %21 = sext i32 %20 to i64
  %22 = getelementptr inbounds float, ptr %17, i64 %21
  store ptr %22, ptr %6, align 8
  call void @llvm.lifetime.start.p0(i64 8, ptr %7) #19
  %23 = load ptr, ptr %6, align 8
  %24 = load i32, ptr %4, align 4
  %25 = sext i32 %24 to i64
  %26 = sub i64 0, %25
  %27 = getelementptr inbounds float, ptr %23, i64 %26
  store ptr %27, ptr %7, align 8
  %28 = load ptr, ptr %7, align 8
  %29 = getelementptr inbounds float, ptr %28, i64 8
  store ptr %29, ptr %7, align 8
  %30 = load ptr, ptr %7, align 8
  %31 = load ptr, ptr %6, align 8
  %32 = icmp ule ptr %30, %31
  br i1 %32, label %33, label %103

33:                                               ; preds = %2
  br label %34

34:                                               ; preds = %98, %33
  call void @llvm.lifetime.start.p0(i64 16, ptr %8) #19
  call void @llvm.lifetime.start.p0(i64 16, ptr %9) #19
  call void @llvm.lifetime.start.p0(i64 16, ptr %10) #19
  call void @llvm.lifetime.start.p0(i64 16, ptr %11) #19
  call void @llvm.lifetime.start.p0(i64 16, ptr %12) #19
  call void @llvm.lifetime.start.p0(i64 16, ptr %13) #19
  %35 = load ptr, ptr %7, align 8
  call void asm sideeffect "", "r,~{dirflag},~{fpsr},~{flags}"(ptr %35) #19, !srcloc !344
  %36 = load ptr, ptr %7, align 8
  %37 = getelementptr inbounds float, ptr %36, i64 -8
  %38 = call <4 x float> @_mm_loadu_ps(ptr noundef %37)
  store <4 x float> %38, ptr %8, align 16
  %39 = load ptr, ptr %7, align 8
  %40 = getelementptr inbounds float, ptr %39, i64 -8
  %41 = getelementptr inbounds float, ptr %40, i64 4
  %42 = call <4 x float> @_mm_loadu_ps(ptr noundef %41)
  store <4 x float> %42, ptr %10, align 16
  %43 = load <4 x float>, ptr %8, align 16
  %44 = call <2 x i64> @_mm_castps_si128(<4 x float> noundef %43)
  %45 = bitcast <2 x i64> %44 to <4 x i32>
  %46 = shufflevector <4 x i32> %45, <4 x i32> poison, <4 x i32> <i32 1, i32 1, i32 3, i32 3>
  %47 = bitcast <4 x i32> %46 to <2 x i64>
  %48 = call <4 x float> @_mm_castsi128_ps(<2 x i64> noundef %47)
  store <4 x float> %48, ptr %12, align 16
  %49 = load <4 x float>, ptr %10, align 16
  %50 = call <2 x i64> @_mm_castps_si128(<4 x float> noundef %49)
  %51 = bitcast <2 x i64> %50 to <4 x i32>
  %52 = shufflevector <4 x i32> %51, <4 x i32> poison, <4 x i32> <i32 1, i32 1, i32 3, i32 3>
  %53 = bitcast <4 x i32> %52 to <2 x i64>
  %54 = call <4 x float> @_mm_castsi128_ps(<2 x i64> noundef %53)
  store <4 x float> %54, ptr %13, align 16
  %55 = load <4 x float>, ptr %8, align 16
  %56 = call <2 x i64> @_mm_castps_si128(<4 x float> noundef %55)
  %57 = bitcast <2 x i64> %56 to <4 x i32>
  %58 = shufflevector <4 x i32> %57, <4 x i32> poison, <4 x i32> <i32 0, i32 0, i32 2, i32 2>
  %59 = bitcast <4 x i32> %58 to <2 x i64>
  %60 = call <4 x float> @_mm_castsi128_ps(<2 x i64> noundef %59)
  store <4 x float> %60, ptr %9, align 16
  %61 = load <4 x float>, ptr %10, align 16
  %62 = call <2 x i64> @_mm_castps_si128(<4 x float> noundef %61)
  %63 = bitcast <2 x i64> %62 to <4 x i32>
  %64 = shufflevector <4 x i32> %63, <4 x i32> poison, <4 x i32> <i32 0, i32 0, i32 2, i32 2>
  %65 = bitcast <4 x i32> %64 to <2 x i64>
  %66 = call <4 x float> @_mm_castsi128_ps(<2 x i64> noundef %65)
  store <4 x float> %66, ptr %11, align 16
  %67 = load <4 x float>, ptr %12, align 16
  %68 = load <4 x float>, ptr %9, align 16
  %69 = call <4 x float> @_mm_mul_ps(<4 x float> noundef %67, <4 x float> noundef %68)
  store <4 x float> %69, ptr %12, align 16
  %70 = load <4 x float>, ptr %13, align 16
  %71 = load <4 x float>, ptr %11, align 16
  %72 = call <4 x float> @_mm_mul_ps(<4 x float> noundef %70, <4 x float> noundef %71)
  store <4 x float> %72, ptr %13, align 16
  %73 = load ptr, ptr %5, align 8
  %74 = load <4 x float>, ptr %8, align 16
  %75 = call <2 x i64> @_mm_castps_si128(<4 x float> noundef %74)
  call void @_mm_storel_epi64(ptr noundef %73, <2 x i64> noundef %75)
  %76 = load ptr, ptr %5, align 8
  %77 = getelementptr inbounds float, ptr %76, i64 2
  %78 = load <4 x float>, ptr %12, align 16
  call void @_mm_storeu_ps(ptr noundef %77, <4 x float> noundef %78)
  %79 = load ptr, ptr %5, align 8
  %80 = getelementptr inbounds float, ptr %79, i64 3
  %81 = load <4 x float>, ptr %8, align 16
  %82 = call <2 x double> @_mm_castps_pd(<4 x float> noundef %81)
  call void @_mm_storeh_pd(ptr noundef %80, <2 x double> noundef %82)
  %83 = load ptr, ptr %5, align 8
  %84 = getelementptr inbounds float, ptr %83, i64 6
  %85 = load <4 x float>, ptr %10, align 16
  %86 = call <2 x i64> @_mm_castps_si128(<4 x float> noundef %85)
  call void @_mm_storel_epi64(ptr noundef %84, <2 x i64> noundef %86)
  %87 = load ptr, ptr %5, align 8
  %88 = getelementptr inbounds float, ptr %87, i64 8
  %89 = load <4 x float>, ptr %13, align 16
  call void @_mm_storeu_ps(ptr noundef %88, <4 x float> noundef %89)
  %90 = load ptr, ptr %5, align 8
  %91 = getelementptr inbounds float, ptr %90, i64 9
  %92 = load <4 x float>, ptr %10, align 16
  %93 = call <2 x double> @_mm_castps_pd(<4 x float> noundef %92)
  call void @_mm_storeh_pd(ptr noundef %91, <2 x double> noundef %93)
  %94 = load ptr, ptr %7, align 8
  %95 = getelementptr inbounds float, ptr %94, i64 8
  store ptr %95, ptr %7, align 8
  %96 = load ptr, ptr %5, align 8
  %97 = getelementptr inbounds float, ptr %96, i64 12
  store ptr %97, ptr %5, align 8
  call void @llvm.lifetime.end.p0(i64 16, ptr %13) #19
  call void @llvm.lifetime.end.p0(i64 16, ptr %12) #19
  call void @llvm.lifetime.end.p0(i64 16, ptr %11) #19
  call void @llvm.lifetime.end.p0(i64 16, ptr %10) #19
  call void @llvm.lifetime.end.p0(i64 16, ptr %9) #19
  call void @llvm.lifetime.end.p0(i64 16, ptr %8) #19
  br label %98

98:                                               ; preds = %34
  %99 = load ptr, ptr %7, align 8
  %100 = load ptr, ptr %6, align 8
  %101 = icmp ule ptr %99, %100
  br i1 %101, label %34, label %102, !llvm.loop !345

102:                                              ; preds = %98
  br label %103

103:                                              ; preds = %102, %2
  %104 = load ptr, ptr %7, align 8
  %105 = getelementptr inbounds float, ptr %104, i64 -8
  store ptr %105, ptr %7, align 8
  br label %106

106:                                              ; preds = %110, %103
  %107 = load ptr, ptr %7, align 8
  %108 = load ptr, ptr %6, align 8
  %109 = icmp ult ptr %107, %108
  br i1 %109, label %110, label %133

110:                                              ; preds = %106
  call void @llvm.lifetime.start.p0(i64 4, ptr %14) #19
  %111 = load ptr, ptr %7, align 8
  %112 = getelementptr inbounds float, ptr %111, i64 0
  %113 = load float, ptr %112, align 4
  store float %113, ptr %14, align 4
  call void @llvm.lifetime.start.p0(i64 4, ptr %15) #19
  %114 = load ptr, ptr %7, align 8
  %115 = getelementptr inbounds float, ptr %114, i64 1
  %116 = load float, ptr %115, align 4
  store float %116, ptr %15, align 4
  %117 = load ptr, ptr %7, align 8
  call void asm sideeffect "", "r,~{dirflag},~{fpsr},~{flags}"(ptr %117) #19, !srcloc !346
  %118 = load float, ptr %14, align 4
  %119 = load ptr, ptr %5, align 8
  %120 = getelementptr inbounds float, ptr %119, i64 0
  store float %118, ptr %120, align 4
  %121 = load float, ptr %15, align 4
  %122 = load ptr, ptr %5, align 8
  %123 = getelementptr inbounds float, ptr %122, i64 1
  store float %121, ptr %123, align 4
  %124 = load float, ptr %14, align 4
  %125 = load float, ptr %15, align 4
  %126 = fmul float %124, %125
  %127 = load ptr, ptr %5, align 8
  %128 = getelementptr inbounds float, ptr %127, i64 2
  store float %126, ptr %128, align 4
  %129 = load ptr, ptr %5, align 8
  %130 = getelementptr inbounds float, ptr %129, i64 3
  store ptr %130, ptr %5, align 8
  %131 = load ptr, ptr %7, align 8
  %132 = getelementptr inbounds float, ptr %131, i64 2
  store ptr %132, ptr %7, align 8
  call void @llvm.lifetime.end.p0(i64 4, ptr %15) #19
  call void @llvm.lifetime.end.p0(i64 4, ptr %14) #19
  br label %106, !llvm.loop !347

133:                                              ; preds = %106
  call void @llvm.lifetime.end.p0(i64 8, ptr %7) #19
  call void @llvm.lifetime.end.p0(i64 8, ptr %6) #19
  call void @llvm.lifetime.end.p0(i64 8, ptr %5) #19
  ret void
}